target datalayout = "e-m:e-p270:32:32-p271:32:32-p272:64:64-i64:64-i128:128-f80:128-n8:16:32:64-S128"
target triple = "x86_64-pc-linux-gnu"

%struct.pointf_s = type { double, double }
%struct.state_t = type { ptr, ptr, %struct.pointf_s, %struct.pointf_s, %struct.pointf_s, %struct.pointf_s, ptr }

; Function Attrs: nounwind uwtable
define internal ptr @nextOne(ptr noundef %0) #0 {
  %2 = alloca ptr, align 8
  %3 = alloca ptr, align 8
  %4 = alloca ptr, align 8
  %5 = alloca i32, align 4
  store ptr %0, ptr %3, align 8, !tbaa !49
  call void @llvm.lifetime.start.p0(i64 8, ptr %4) #13
  %6 = load ptr, ptr %3, align 8, !tbaa !49
  store ptr %6, ptr %4, align 8, !tbaa !49
  %7 = load ptr, ptr %4, align 8, !tbaa !49
  %8 = getelementptr inbounds nuw %struct.state_t, ptr %7, i32 0, i32 6
  %9 = load ptr, ptr %8, align 8, !tbaa !171
  %10 = load ptr, ptr %4, align 8, !tbaa !49
  %11 = getelementptr inbounds nuw %struct.state_t, ptr %10, i32 0, i32 1
  %12 = load ptr, ptr %11, align 8, !tbaa !157
  %13 = icmp ult ptr %9, %12
  br i1 %13, label %14, label %20

14:                                               ; preds = %1
  %15 = load ptr, ptr %4, align 8, !tbaa !49
  %16 = getelementptr inbounds nuw %struct.state_t, ptr %15, i32 0, i32 6
  %17 = load ptr, ptr %16, align 8, !tbaa !171
  %18 = getelementptr inbounds nuw ptr, ptr %17, i32 1
  store ptr %18, ptr %16, align 8, !tbaa !171
  %19 = load ptr, ptr %17, align 8, !tbaa !158
  store ptr %19, ptr %2, align 8
  store i32 1, ptr %5, align 4
  br label %21

20:                                               ; preds = %1
  store ptr null, ptr %2, align 8
  store i32 1, ptr %5, align 4
  br label %21

21:                                               ; preds = %20, %14
  call void @llvm.lifetime.end.p0(i64 8, ptr %4) #13
  %22 = load ptr, ptr %2, align 8
  ret ptr %22
}