; Function Attrs: mustprogress nofree norecurse nosync nounwind willreturn memory(read, argmem: readwrite, inaccessiblemem: none) uwtable
define internal ptr @nextOne(ptr noundef captures(none) %0) #17 {
  %2 = getelementptr inbounds nuw i8, ptr %0, i64 80
  %3 = load ptr, ptr %2, align 8, !tbaa !156
  %4 = getelementptr inbounds nuw i8, ptr %0, i64 8
  %5 = load ptr, ptr %4, align 8, !tbaa !148
  %6 = icmp ult ptr %3, %5
  br i1 %6, label %7, label %10

7:                                                ; preds = %1
  %8 = getelementptr inbounds nuw i8, ptr %3, i64 8
  store ptr %8, ptr %2, align 8, !tbaa !156
  %9 = load ptr, ptr %3, align 8, !tbaa !106
  br label %10

10:                                               ; preds = %1, %7
  %.0 = phi ptr [ %9, %7 ], [ null, %1 ]
  ret ptr %.0
}